; Function Attrs: mustprogress uwtable
define internal fastcc void @_ZN12_GLOBAL__N_132ArgumentParserWithOutputVariableIZNS_28HandleRemoveExtensionCommandERKSt6vectorINSt7__cxx1112basic_stringIcSt11char_traitsIcESaIcEEESaIS7_EER17cmExecutionStatusE9ArgumentsEC2ERKSF_(ptr noundef nonnull align 8 dereferenceable(136) %0) unnamed_addr #3 align 2 personality ptr @__gxx_personality_v0 {
  tail call void @_ZN14ArgumentParser9ActionMapC2ERKS0_(ptr noundef nonnull align 8 dereferenceable(112) @_ZZN12_GLOBAL__N_128HandleRemoveExtensionCommandERKSt6vectorINSt7__cxx1112basic_stringIcSt11char_traitsIcESaIcEEESaIS6_EER17cmExecutionStatusE6parser, ptr noundef nonnull align 8 dereferenceable(136) %0)
  %2 = getelementptr inbounds nuw i8, ptr %0, i64 112
  invoke void @_ZNSt6vectorINSt7__cxx1112basic_stringIcSt11char_traitsIcESaIcEEESaIS5_EEC2ERKS7_(ptr noundef nonnull align 8 dereferenceable(24) getelementptr inbounds nuw (i8, ptr @_ZZN12_GLOBAL__N_128HandleRemoveExtensionCommandERKSt6vectorINSt7__cxx1112basic_stringIcSt11char_traitsIcESaIcEEESaIS6_EER17cmExecutionStatusE6parser, i64 112), ptr noundef nonnull align 8 dereferenceable(24) %2)
          to label %_ZN12_GLOBAL__N_123CMakePathArgumentParserIZNS_28HandleRemoveExtensionCommandERKSt6vectorINSt7__cxx1112basic_stringIcSt11char_traitsIcESaIcEEESaIS7_EER17cmExecutionStatusE9ArgumentsEC2ERKSF_.exit unwind label %3

3:                                                ; preds = %1
  %4 = landingpad { ptr, i32 }
          cleanup
  tail call void @_ZN14ArgumentParser9ActionMapD2Ev(ptr noundef nonnull align 8 dereferenceable(112) @_ZZN12_GLOBAL__N_128HandleRemoveExtensionCommandERKSt6vectorINSt7__cxx1112basic_stringIcSt11char_traitsIcESaIcEEESaIS6_EER17cmExecutionStatusE6parser) #21
  resume { ptr, i32 } %4

_ZN12_GLOBAL__N_123CMakePathArgumentParserIZNS_28HandleRemoveExtensionCommandERKSt6vectorINSt7__cxx1112basic_stringIcSt11char_traitsIcESaIcEEESaIS7_EER17cmExecutionStatusE9ArgumentsEC2ERKSF_.exit: ; preds = %1
  ret void
}